(lp1
S'Rationale-Augmented Convolutional Neural Networks for Text Classification'
p2
aS'Aspect Level Sentiment Classification with Deep Memory Network'
p3
aS'Generalizing and Hybridizing Count-based and Neural Language Models'
p4
aS'The Structured Weighted Violations Perceptron Algorithm'
p5
aS'Conditional Generation and Snapshot Learning in Neural Dialogue Systems'
p6
aS'Inducing Domain-Specific Sentiment Lexicons from Unlabeled Corpora'
p7
aS'Multimodal Compact Bilinear Pooling for Visual Question Answering and Visual Grounding'
p8
aS'Neural versus Phrase-Based Machine Translation Quality: a Case Study'
p9
aS'Building an Evaluation Scale using Item Response Theory'
p10
aS'Long Short-Term Memory-Networks for Machine Reading'
p11
aS'Personalized Emphasis Framing for Persuasive Message Generation'
p12
aS'Recursive Neural Conditional Random Fields for Aspect-based Sentiment Analysis'
p13
aS'Learning Crosslingual Word Embeddings without Bilingual Corpora'
p14
aS'Latent Tree Language Model'
p15
aS'How NOT To Evaluate Your Dialogue System: An Empirical Study of Unsupervised Evaluation Metrics for Dialogue Response Generation'
p16
aS'Neural Text Generation from Structured Data with Application to the Biography Domain'
p17
aS'Variational Neural Machine Translation'
p18
aS'Creating Causal Embeddings for Question Answering with Minimal Supervision'
p19
aS'Learning to Translate for Multilingual Question Answering'
p20
aS'A Semiparametric Model for Bayesian Reader Identification'
p21
aS'Memory-enhanced Decoder for Neural Machine Translation'
p22
aS'Modeling Human Reading with Neural Attention'
p23
aS'Stance Detection with Bidirectional Conditional Encoding'
p24
aS'Improving Information Extraction by Acquiring External Evidence with Reinforcement Learning'
p25
aS'SimVerb-3500: A Large-Scale Evaluation Set of Verb Similarity'
p26
aS'A Neural Network for Coordination Boundary Prediction'
p27
aS'Variational Neural Discourse Relation Recognizer'
p28
aS'Deep Reinforcement Learning for Dialogue Generation'
p29
aS'Key-Value Memory Networks for Directly Reading Documents'
p30
aS'Phrase-based Machine Translation is State-of-the-Art for Automatic Grammatical Error Correction'
p31
aS'Semantic Parsing to Probabilistic Programs for Situated Question Answering'
p32
aS'Morphological Priors for Probabilistic Neural Word Embeddings'
p33
aS'Incorporating Discrete Translation Lexicons into Neural Machine Translation'
p34
aS'Improving Sparse Word Representations with Distributional Inference for Semantic Composition'
p35
aS'Distilling an Ensemble of Greedy Dependency Parsers into One MST Parser'
p36
aS'Bi-directional Attention with Agreement for Dependency Parsing'
p37
aS'Semantic Parsing with Semi-Supervised Sequential Autoencoders'
p38
aS'Online Segment to Segment Neural Transduction'
p39
aS'Transfer Learning for Low-Resource Neural Machine Translation'
p40
aS'Lifted Rule Injection for Relation Embeddings'
p41
aS'Predicting the Relative Difficulty of Single Sentences With and Without Surrounding Context'
p42
aS'Global Neural CCG Parsing with Optimality Guarantees'
p43
aS'Rationalizing Neural Predictions'
p44
aS'An Unsupervised Probability Model for Speech-to-Translation Alignment of Low-Resource Languages'
p45
aS'Demographic Dialectal Variation in Social Media: A Case Study of African-American English'
p46
aS'Natural Language Comprehension with the EpiReader'
p47
aS'Controlling Output Length in Neural Encoder-Decoders'
p48
aS'Sequence-Level Knowledge Distillation'
p49
aS'Zero-Resource Translation with Multi-Lingual Neural Machine Translation'
p50
aS'Character-Level Question Answering with Attention'
p51
aS'Sequence-to-Sequence Learning as Beam-Search Optimization'
p52
aS'Length bias in Encoder Decoder Models and a Case for Global Conditioning'
p53
aS'Analyzing the Behavior of Visual Question Answering Models'
p54
aS'Improving LSTM-based Video Description with Linguistic Knowledge Mined from Text'
p55
aS'Leveraging Sentence-level Information with Encoder LSTM for Semantic Slot Filling'
p56
aS'The Effects of Data Size and Frequency Range on Distributional Semantic Models'
p57
aS'Supervised Attentions for Neural Machine Translation'
p58
aS'Neural Generation of Regular Expressions from Natural Language with Minimal Domain Knowledge'
p59
aS'Representing Verbs with Rich Contexts: an Evaluation on Verb Similarity'
p60
aS'Learning to Generate Compositional Color Descriptions'
p61
aS'A Hierarchical Model of Reviews for Aspect-based Sentiment Analysis'
p62
aS'Learning Robust Representations of Text'
p63
aS'Orthographic Syllable as basic unit for SMT between Related Languages'
p64
aS'Who did What: A Large-Scale Person-Centered Cloze Dataset'
p65
aS'Numerically Grounded Language Models for Semantic Error Correction'
p66
aS'AMR-to-text generation as a Traveling Salesman Problem'
p67
aS'Gated Word-Character Recurrent Language Model'
p68
aS'A Decomposable Attention Model for Natural Language Inference'
p69
aS'Word Ordering Without Syntax'
p70
aS'Characterizing the Language of Online Communities and its Relation to Community Reception'
p71
aS'Interpreting Neural Networks to Improve Politeness Comprehension'
p72
aS'Deep Reinforcement Learning for Mention-Ranking Coreference Models'
p73
aS'Evaluating Induced CCG Parsers on Grounded Semantic Parsing'
p74
aS'Easy-First Dependency Parsing with Hierarchical Tree LSTMs'
p75
aS'Deep Recurrent Models with Fast-Forward Connections for Neural Machine Translation'
p76
aS'Large-scale Analysis of Counseling Conversations: An Application of Natural Language Processing to Mental Health'
p77
a.