(lp1
S'https://arxiv.org/abs/1605.04469'
p2
aS'https://arxiv.org/abs/1605.08900'
p3
aS'https://arxiv.org/abs/1606.00499'
p4
aS'https://arxiv.org/abs/1602.03040'
p5
aS'https://arxiv.org/abs/1606.03352'
p6
aS'https://arxiv.org/abs/1606.02820'
p7
aS'https://arxiv.org/abs/1606.01847'
p8
aS'https://arxiv.org/abs/1608.04631'
p9
aS'https://arxiv.org/abs/1605.08889'
p10
aS'https://arxiv.org/abs/1601.06733'
p11
aS'https://arxiv.org/abs/1607.08898'
p12
aS'https://arxiv.org/abs/1603.06679'
p13
aS'https://arxiv.org/abs/1606.09403'
p14
aS'https://arxiv.org/abs/1607.07057'
p15
aS'https://arxiv.org/abs/1603.08023'
p16
aS'https://arxiv.org/abs/1603.07771'
p17
aS'https://arxiv.org/abs/1605.07869'
p18
aS'https://arxiv.org/abs/1609.08097'
p19
aS'https://arxiv.org/abs/1609.08210'
p20
aS'https://arxiv.org/abs/1607.05271'
p21
aS'https://arxiv.org/abs/1606.02003'
p22
aS'https://arxiv.org/abs/1608.05604'
p23
aS'https://arxiv.org/abs/1606.05464'
p24
aS'https://arxiv.org/abs/1603.07954'
p25
aS'https://arxiv.org/abs/1608.00869'
p26
aS'https://arxiv.org/abs/1610.03946'
p27
aS'https://arxiv.org/abs/1603.03876'
p28
aS'https://arxiv.org/abs/1606.01541'
p29
aS'https://arxiv.org/abs/1606.03126'
p30
aS'https://arxiv.org/abs/1605.06353'
p31
aS'https://arxiv.org/abs/1606.07046'
p32
aS'https://arxiv.org/abs/1608.01056'
p33
aS'https://arxiv.org/abs/1606.02006'
p34
aS'https://arxiv.org/abs/1608.06794'
p35
aS'https://arxiv.org/abs/1609.07561'
p36
aS'https://arxiv.org/abs/1608.02076'
p37
aS'https://arxiv.org/abs/1609.09315'
p38
aS'https://arxiv.org/abs/1609.08194'
p39
aS'https://arxiv.org/abs/1604.02201'
p40
aS'https://arxiv.org/abs/1606.08359'
p41
aS'https://arxiv.org/abs/1606.08425'
p42
aS'https://arxiv.org/abs/1607.01432'
p43
aS'https://arxiv.org/abs/1606.04155'
p44
aS'https://arxiv.org/abs/1609.08139'
p45
aS'https://arxiv.org/abs/1608.08868'
p46
aS'https://arxiv.org/abs/1606.02270'
p47
aS'https://arxiv.org/abs/1609.09552'
p48
aS'https://arxiv.org/abs/1606.07947'
p49
aS'https://arxiv.org/abs/1606.04164'
p50
aS'https://arxiv.org/abs/1604.00727'
p51
aS'https://arxiv.org/abs/1606.02960'
p52
aS'https://arxiv.org/abs/1606.03402'
p53
aS'https://arxiv.org/abs/1606.07356'
p54
aS'https://arxiv.org/abs/1604.01729'
p55
aS'https://arxiv.org/abs/1601.01530'
p56
aS'https://arxiv.org/abs/1609.08293'
p57
aS'https://arxiv.org/abs/1608.00112'
p58
aS'https://arxiv.org/abs/1608.03000'
p59
aS'https://arxiv.org/abs/1607.02061'
p60
aS'https://arxiv.org/abs/1606.03821'
p61
aS'https://arxiv.org/abs/1609.02745'
p62
aS'https://arxiv.org/abs/1609.06082'
p63
aS'https://arxiv.org/abs/1610.00634'
p64
aS'https://arxiv.org/abs/1608.05457'
p65
aS'https://arxiv.org/abs/1608.04147'
p66
aS'https://arxiv.org/abs/1609.07451'
p67
aS'https://arxiv.org/abs/1606.01700'
p68
aS'https://arxiv.org/abs/1606.01933'
p69
aS'https://arxiv.org/abs/1604.08633'
p70
aS'https://arxiv.org/abs/1609.04779'
p71
aS'https://arxiv.org/abs/1610.02683'
p72
aS'https://arxiv.org/abs/1609.08667'
p73
aS'https://arxiv.org/abs/1609.09405'
p74
aS'https://arxiv.org/abs/1603.00375'
p75
aS'https://arxiv.org/abs/1606.04199'
p76
aS'https://arxiv.org/abs/1605.04462'
p77
a.